target datalayout = "e-m:e-p270:32:32-p271:32:32-p272:64:64-i64:64-i128:128-f80:128-n8:16:32:64-S128"
target triple = "x86_64-pc-linux-gnu"

%struct.lex_context = type { i16, [2 x i8] }
%struct.parser_params = type { ptr, ptr, %struct.anon.12, i64, i64, i32, i32, i32, i32, i32, ptr, ptr, ptr, ptr, i32, i32, ptr, i64, ptr, ptr, ptr, ptr, i64, i64, %struct.anon.13, ptr, i32, ptr, i32, i64, %struct.lex_context, ptr, ptr, ptr, i16, i64, i64, i64, i64, i64, i64 }
%struct.anon.12 = type { ptr, ptr, ptr, %struct.parser_string_buffer, ptr, ptr, ptr, ptr, ptr, ptr, i32, i32, i32, i32 }
%struct.parser_string_buffer = type { ptr, ptr }
%struct.anon.13 = type { ptr, i32, i32, i32, i32 }

@id_warning = external constant i64, align 8
@.str.449 = private unnamed_addr constant [8 x i8] c"literal\00", align 1
@.str.537 = private unnamed_addr constant [5 x i8] c"none\00", align 1
@.str.639 = private unnamed_addr constant [25 x i8] c"invalid value for %s: %s\00", align 1
@.str.640 = private unnamed_addr constant [44 x i8] c"'%s' is ignored unless in comment-only line\00", align 1
@.str.641 = private unnamed_addr constant [18 x i8] c"experimental_copy\00", align 1
@.str.642 = private unnamed_addr constant [24 x i8] c"experimental_everything\00", align 1

; Function Attrs: nounwind sspstrong uwtable
define internal i32 @parser_invalid_pragma_value(ptr noundef %0, ptr noundef %1, ptr noundef %2) #0 {
  %4 = alloca ptr, align 8
  %5 = alloca ptr, align 8
  %6 = alloca ptr, align 8
  store ptr %0, ptr %4, align 8, !tbaa !6
  store ptr %1, ptr %5, align 8, !tbaa !24
  store ptr %2, ptr %6, align 8, !tbaa !24
  %7 = load ptr, ptr %4, align 8, !tbaa !6
  %8 = getelementptr inbounds nuw %struct.parser_params, ptr %7, i32 0, i32 35
  %9 = load i64, ptr %8, align 8, !tbaa !85
  %10 = load i64, ptr @id_warning, align 8, !tbaa !16
  %11 = call i64 @rb_usascii_str_new_static(ptr noundef @.str.639, i64 noundef 24)
  br i1 false, label %12, label %16

12:                                               ; preds = %3
  %13 = load ptr, ptr %5, align 8, !tbaa !24
  %14 = call i64 @strlen(ptr noundef %13) #27
  %15 = call i1 @llvm.is.constant.i64(i64 %14)
  br label %16

16:                                               ; preds = %12, %3
  %17 = phi i1 [ false, %3 ], [ %15, %12 ]
  %18 = select i1 %17, ptr @rb_enc_str_new_static, ptr @rb_enc_str_new
  %19 = load ptr, ptr %5, align 8, !tbaa !24
  %20 = load ptr, ptr %5, align 8, !tbaa !24
  %21 = call i64 @strlen(ptr noundef %20) #27
  %22 = load ptr, ptr %4, align 8, !tbaa !6
  %23 = getelementptr inbounds nuw %struct.parser_params, ptr %22, i32 0, i32 18
  %24 = load ptr, ptr %23, align 8, !tbaa !75
  %25 = call i64 %18(ptr noundef %19, i64 noundef %21, ptr noundef %24)
  br i1 false, label %26, label %30

26:                                               ; preds = %16
  %27 = load ptr, ptr %6, align 8, !tbaa !24
  %28 = call i64 @strlen(ptr noundef %27) #27
  %29 = call i1 @llvm.is.constant.i64(i64 %28)
  br label %30

30:                                               ; preds = %26, %16
  %31 = phi i1 [ false, %16 ], [ %29, %26 ]
  %32 = select i1 %31, ptr @rb_enc_str_new_static, ptr @rb_enc_str_new
  %33 = load ptr, ptr %6, align 8, !tbaa !24
  %34 = load ptr, ptr %6, align 8, !tbaa !24
  %35 = call i64 @strlen(ptr noundef %34) #27
  %36 = load ptr, ptr %4, align 8, !tbaa !6
  %37 = getelementptr inbounds nuw %struct.parser_params, ptr %36, i32 0, i32 18
  %38 = load ptr, ptr %37, align 8, !tbaa !75
  %39 = call i64 %32(ptr noundef %33, i64 noundef %35, ptr noundef %38)
  %40 = call i64 (i64, i64, i32, ...) @rb_funcall(i64 noundef %9, i64 noundef %10, i32 noundef 3, i64 noundef %11, i64 noundef %25, i64 noundef %39)
  ret i32 -1
}

; Function Attrs: nounwind sspstrong uwtable
define internal void @parser_set_shareable_constant_value(ptr noundef %0, ptr noundef %1, ptr noundef %2) #0 {
  %4 = alloca ptr, align 8
  %5 = alloca ptr, align 8
  %6 = alloca ptr, align 8
  %7 = alloca ptr, align 8
  %8 = alloca ptr, align 8
  %9 = alloca i32, align 4
  store ptr %0, ptr %4, align 8, !tbaa !6
  store ptr %1, ptr %5, align 8, !tbaa !24
  store ptr %2, ptr %6, align 8, !tbaa !24
  call void @llvm.lifetime.start.p0(i64 8, ptr %7) #25
  %10 = load ptr, ptr %4, align 8, !tbaa !6
  %11 = getelementptr inbounds nuw %struct.parser_params, ptr %10, i32 0, i32 2
  %12 = getelementptr inbounds nuw %struct.anon.12, ptr %11, i32 0, i32 6
  %13 = load ptr, ptr %12, align 8, !tbaa !199
  store ptr %13, ptr %7, align 8, !tbaa !24
  call void @llvm.lifetime.start.p0(i64 8, ptr %8) #25
  %14 = load ptr, ptr %4, align 8, !tbaa !6
  %15 = getelementptr inbounds nuw %struct.parser_params, ptr %14, i32 0, i32 2
  %16 = getelementptr inbounds nuw %struct.anon.12, ptr %15, i32 0, i32 7
  %17 = load ptr, ptr %16, align 8, !tbaa !283
  store ptr %17, ptr %8, align 8, !tbaa !24
  br label %18

18:                                               ; preds = %61, %3
  %19 = load ptr, ptr %7, align 8, !tbaa !24
  %20 = load ptr, ptr %8, align 8, !tbaa !24
  %21 = icmp ult ptr %19, %20
  br i1 %21, label %23, label %22

22:                                               ; preds = %18
  store i32 2, ptr %9, align 4
  br label %64

23:                                               ; preds = %18
  %24 = load ptr, ptr %7, align 8, !tbaa !24
  %25 = load i8, ptr %24, align 1, !tbaa !12
  %26 = sext i8 %25 to i32
  %27 = icmp eq i32 %26, 32
  br i1 %27, label %33, label %28

28:                                               ; preds = %23
  %29 = load ptr, ptr %7, align 8, !tbaa !24
  %30 = load i8, ptr %29, align 1, !tbaa !12
  %31 = sext i8 %30 to i32
  %32 = icmp eq i32 %31, 9
  br i1 %32, label %33, label %34

33:                                               ; preds = %28, %23
  br label %61

34:                                               ; preds = %28
  %35 = load ptr, ptr %7, align 8, !tbaa !24
  %36 = load i8, ptr %35, align 1, !tbaa !12
  %37 = sext i8 %36 to i32
  %38 = icmp eq i32 %37, 35
  br i1 %38, label %39, label %40

39:                                               ; preds = %34
  store i32 2, ptr %9, align 4
  br label %64

40:                                               ; preds = %34
  %41 = load ptr, ptr %4, align 8, !tbaa !6
  %42 = getelementptr inbounds nuw %struct.parser_params, ptr %41, i32 0, i32 35
  %43 = load i64, ptr %42, align 8, !tbaa !85
  %44 = load i64, ptr @id_warning, align 8, !tbaa !16
  %45 = call i64 @rb_usascii_str_new_static(ptr noundef @.str.640, i64 noundef 43)
  br i1 false, label %46, label %50

46:                                               ; preds = %40
  %47 = load ptr, ptr %5, align 8, !tbaa !24
  %48 = call i64 @strlen(ptr noundef %47) #27
  %49 = call i1 @llvm.is.constant.i64(i64 %48)
  br label %50

50:                                               ; preds = %46, %40
  %51 = phi i1 [ false, %40 ], [ %49, %46 ]
  %52 = select i1 %51, ptr @rb_enc_str_new_static, ptr @rb_enc_str_new
  %53 = load ptr, ptr %5, align 8, !tbaa !24
  %54 = load ptr, ptr %5, align 8, !tbaa !24
  %55 = call i64 @strlen(ptr noundef %54) #27
  %56 = load ptr, ptr %4, align 8, !tbaa !6
  %57 = getelementptr inbounds nuw %struct.parser_params, ptr %56, i32 0, i32 18
  %58 = load ptr, ptr %57, align 8, !tbaa !75
  %59 = call i64 %52(ptr noundef %53, i64 noundef %55, ptr noundef %58)
  %60 = call i64 (i64, i64, i32, ...) @rb_funcall(i64 noundef %43, i64 noundef %44, i32 noundef 2, i64 noundef %45, i64 noundef %59)
  store i32 1, ptr %9, align 4
  br label %64

61:                                               ; preds = %33
  %62 = load ptr, ptr %7, align 8, !tbaa !24
  %63 = getelementptr inbounds nuw i8, ptr %62, i32 1
  store ptr %63, ptr %7, align 8, !tbaa !24
  br label %18, !llvm.loop !772

64:                                               ; preds = %50, %39, %22
  call void @llvm.lifetime.end.p0(i64 8, ptr %8) #25
  call void @llvm.lifetime.end.p0(i64 8, ptr %7) #25
  %65 = load i32, ptr %9, align 4
  switch i32 %65, label %119 [
    i32 2, label %66
    i32 1, label %118
  ]

66:                                               ; preds = %64
  %67 = load ptr, ptr %6, align 8, !tbaa !24
  %68 = load i8, ptr %67, align 1, !tbaa !12
  %69 = sext i8 %68 to i32
  switch i32 %69, label %113 [
    i32 110, label %70
    i32 78, label %70
    i32 108, label %81
    i32 76, label %81
    i32 101, label %92
    i32 69, label %92
  ]

70:                                               ; preds = %66, %66
  %71 = load ptr, ptr %6, align 8, !tbaa !24
  %72 = call i32 @rb_parser_st_locale_insensitive_strcasecmp(ptr noundef %71, ptr noundef @.str.537) #27
  %73 = icmp eq i32 %72, 0
  br i1 %73, label %74, label %80

74:                                               ; preds = %70
  %75 = load ptr, ptr %4, align 8, !tbaa !6
  %76 = getelementptr inbounds nuw %struct.parser_params, ptr %75, i32 0, i32 30
  %77 = load i16, ptr %76, align 8
  %78 = and i16 %77, -97
  %79 = or i16 %78, 0
  store i16 %79, ptr %76, align 8
  br label %118

80:                                               ; preds = %70
  br label %113

81:                                               ; preds = %66, %66
  %82 = load ptr, ptr %6, align 8, !tbaa !24
  %83 = call i32 @rb_parser_st_locale_insensitive_strcasecmp(ptr noundef %82, ptr noundef @.str.449) #27
  %84 = icmp eq i32 %83, 0
  br i1 %84, label %85, label %91

85:                                               ; preds = %81
  %86 = load ptr, ptr %4, align 8, !tbaa !6
  %87 = getelementptr inbounds nuw %struct.parser_params, ptr %86, i32 0, i32 30
  %88 = load i16, ptr %87, align 8
  %89 = and i16 %88, -97
  %90 = or i16 %89, 32
  store i16 %90, ptr %87, align 8
  br label %118

91:                                               ; preds = %81
  br label %113

92:                                               ; preds = %66, %66
  %93 = load ptr, ptr %6, align 8, !tbaa !24
  %94 = call i32 @rb_parser_st_locale_insensitive_strcasecmp(ptr noundef %93, ptr noundef @.str.641) #27
  %95 = icmp eq i32 %94, 0
  br i1 %95, label %96, label %102

96:                                               ; preds = %92
  %97 = load ptr, ptr %4, align 8, !tbaa !6
  %98 = getelementptr inbounds nuw %struct.parser_params, ptr %97, i32 0, i32 30
  %99 = load i16, ptr %98, align 8
  %100 = and i16 %99, -97
  %101 = or i16 %100, 64
  store i16 %101, ptr %98, align 8
  br label %118

102:                                              ; preds = %92
  %103 = load ptr, ptr %6, align 8, !tbaa !24
  %104 = call i32 @rb_parser_st_locale_insensitive_strcasecmp(ptr noundef %103, ptr noundef @.str.642) #27
  %105 = icmp eq i32 %104, 0
  br i1 %105, label %106, label %112

106:                                              ; preds = %102
  %107 = load ptr, ptr %4, align 8, !tbaa !6
  %108 = getelementptr inbounds nuw %struct.parser_params, ptr %107, i32 0, i32 30
  %109 = load i16, ptr %108, align 8
  %110 = and i16 %109, -97
  %111 = or i16 %110, 96
  store i16 %111, ptr %108, align 8
  br label %118

112:                                              ; preds = %102
  br label %113

113:                                              ; preds = %66, %112, %91, %80
  %114 = load ptr, ptr %4, align 8, !tbaa !6
  %115 = load ptr, ptr %5, align 8, !tbaa !24
  %116 = load ptr, ptr %6, align 8, !tbaa !24
  %117 = call i32 @parser_invalid_pragma_value(ptr noundef %114, ptr noundef %115, ptr noundef %116)
  br label %118

118:                                              ; preds = %113, %106, %96, %85, %74, %64
  ret void

119:                                              ; preds = %64
  unreachable
}