; Function Attrs: nounwind sspstrong uwtable
define internal void @parser_set_shareable_constant_value(ptr noundef captures(none) %0, ptr noundef %1, ptr noundef %2) #0 {
  %4 = getelementptr inbounds nuw i8, ptr %0, i64 72
  %5 = load ptr, ptr %4, align 8, !tbaa !44
  %6 = getelementptr inbounds nuw i8, ptr %0, i64 80
  %7 = load ptr, ptr %6, align 8, !tbaa !48
  %8 = icmp ult ptr %5, %7
  br i1 %8, label %.lr.ph, label %._crit_edge

.lr.ph:                                           ; preds = %3, %10
  %.02429 = phi ptr [ %11, %10 ], [ %5, %3 ]
  %9 = load i8, ptr %.02429, align 1, !tbaa !6
  switch i8 %9, label %12 [
    i8 32, label %10
    i8 9, label %10
    i8 35, label %._crit_edge
  ]

10:                                               ; preds = %.lr.ph, %.lr.ph
  %11 = getelementptr inbounds nuw i8, ptr %.02429, i64 1
  %exitcond.not = icmp eq ptr %11, %7
  br i1 %exitcond.not, label %._crit_edge, label %.lr.ph, !llvm.loop !581

12:                                               ; preds = %.lr.ph
  %13 = getelementptr inbounds nuw i8, ptr %0, i64 368
  %14 = load i64, ptr %13, align 8, !tbaa !46
  %15 = load i64, ptr @id_warning, align 8, !tbaa !9
  %16 = tail call i64 @rb_usascii_str_new_static(ptr noundef nonnull @.str.640, i64 noundef 43) #31
  %17 = tail call i64 @strlen(ptr noundef nonnull dereferenceable(1) %1) #34
  %18 = getelementptr inbounds nuw i8, ptr %0, i64 216
  %19 = load ptr, ptr %18, align 8, !tbaa !49
  %20 = tail call i64 @rb_enc_str_new(ptr noundef nonnull %1, i64 noundef %17, ptr noundef %19) #31
  %21 = tail call i64 (i64, i64, i32, ...) @rb_funcall(i64 noundef %14, i64 noundef %15, i32 noundef 2, i64 noundef %16, i64 noundef %20) #31
  br label %66

._crit_edge:                                      ; preds = %.lr.ph, %10, %3
  %22 = load i8, ptr %2, align 1, !tbaa !6
  switch i8 %22, label %53 [
    i8 110, label %23
    i8 78, label %23
    i8 108, label %30
    i8 76, label %30
    i8 101, label %38
    i8 69, label %38
  ]

23:                                               ; preds = %._crit_edge, %._crit_edge
  %24 = tail call i32 @rb_parser_st_locale_insensitive_strcasecmp(ptr noundef nonnull %2, ptr noundef nonnull @.str.537) #34
  %25 = icmp eq i32 %24, 0
  br i1 %25, label %26, label %53

26:                                               ; preds = %23
  %27 = getelementptr inbounds nuw i8, ptr %0, i64 328
  %28 = load i16, ptr %27, align 8
  %29 = and i16 %28, -97
  store i16 %29, ptr %27, align 8
  br label %66

30:                                               ; preds = %._crit_edge, %._crit_edge
  %31 = tail call i32 @rb_parser_st_locale_insensitive_strcasecmp(ptr noundef nonnull %2, ptr noundef nonnull @.str.449) #34
  %32 = icmp eq i32 %31, 0
  br i1 %32, label %33, label %53

33:                                               ; preds = %30
  %34 = getelementptr inbounds nuw i8, ptr %0, i64 328
  %35 = load i16, ptr %34, align 8
  %36 = and i16 %35, -97
  %37 = or disjoint i16 %36, 32
  store i16 %37, ptr %34, align 8
  br label %66

38:                                               ; preds = %._crit_edge, %._crit_edge
  %39 = tail call i32 @rb_parser_st_locale_insensitive_strcasecmp(ptr noundef nonnull %2, ptr noundef nonnull @.str.641) #34
  %40 = icmp eq i32 %39, 0
  br i1 %40, label %41, label %46

41:                                               ; preds = %38
  %42 = getelementptr inbounds nuw i8, ptr %0, i64 328
  %43 = load i16, ptr %42, align 8
  %44 = and i16 %43, -97
  %45 = or disjoint i16 %44, 64
  store i16 %45, ptr %42, align 8
  br label %66

46:                                               ; preds = %38
  %47 = tail call i32 @rb_parser_st_locale_insensitive_strcasecmp(ptr noundef nonnull %2, ptr noundef nonnull @.str.642) #34
  %48 = icmp eq i32 %47, 0
  br i1 %48, label %49, label %53

49:                                               ; preds = %46
  %50 = getelementptr inbounds nuw i8, ptr %0, i64 328
  %51 = load i16, ptr %50, align 8
  %52 = or i16 %51, 96
  store i16 %52, ptr %50, align 8
  br label %66

53:                                               ; preds = %46, %30, %23, %._crit_edge
  %54 = getelementptr inbounds nuw i8, ptr %0, i64 368
  %55 = load i64, ptr %54, align 8, !tbaa !46
  %56 = load i64, ptr @id_warning, align 8, !tbaa !9
  %57 = tail call i64 @rb_usascii_str_new_static(ptr noundef nonnull @.str.639, i64 noundef 24) #31
  %58 = tail call i64 @strlen(ptr noundef nonnull dereferenceable(1) %1) #34
  %59 = getelementptr inbounds nuw i8, ptr %0, i64 216
  %60 = load ptr, ptr %59, align 8, !tbaa !49
  %61 = tail call i64 @rb_enc_str_new(ptr noundef nonnull %1, i64 noundef %58, ptr noundef %60) #31
  %62 = tail call i64 @strlen(ptr noundef nonnull dereferenceable(1) %2) #34
  %63 = load ptr, ptr %59, align 8, !tbaa !49
  %64 = tail call i64 @rb_enc_str_new(ptr noundef nonnull %2, i64 noundef %62, ptr noundef %63) #31
  %65 = tail call i64 (i64, i64, i32, ...) @rb_funcall(i64 noundef %55, i64 noundef %56, i32 noundef 3, i64 noundef %57, i64 noundef %61, i64 noundef %64) #31
  br label %66

66:                                               ; preds = %12, %53, %49, %41, %33, %26
  ret void
}